; Function Attrs: null_pointer_is_valid sspstrong uwtable
define internal i32 @dissect_xnap_T_m_NG_RANNode_to_S_NG_RANNode_Container(ptr noundef %0, i32 noundef %1, ptr noundef %2, ptr noundef %3, i32 noundef %4) #0 {
  %6 = alloca ptr, align 8
  call void @llvm.lifetime.start.p0(i64 8, ptr nonnull %6) #9
  store ptr null, ptr %6, align 8
  %7 = call i32 @dissect_per_octet_string(ptr noundef %0, i32 noundef %1, ptr noundef %2, ptr noundef %3, i32 noundef %4, i32 noundef -1, i32 noundef -1, i1 noundef zeroext false, ptr noundef nonnull %6)
  %8 = load ptr, ptr %6, align 8
  %.not = icmp eq ptr %8, null
  br i1 %.not, label %35, label %9

9:                                                ; preds = %5
  %10 = getelementptr inbounds nuw i8, ptr %2, i64 16
  %11 = load ptr, ptr %10, align 8
  %12 = getelementptr inbounds nuw i8, ptr %11, i64 232
  %13 = getelementptr inbounds nuw i8, ptr %11, i64 288
  %14 = load i32, ptr %13, align 8
  %15 = call fastcc i32 @xnap_get_ranmode_id(ptr noundef nonnull %12, i32 noundef %14, ptr noundef %11)
  %16 = getelementptr inbounds nuw i8, ptr %2, i64 24
  %17 = load ptr, ptr %16, align 8
  %18 = load i32, ptr @ett_xnap_container, align 4
  %19 = call ptr @proto_item_add_subtree(ptr noundef %17, i32 noundef %18)
  %20 = load i32, ptr @xnap_dissect_target_ng_ran_container_as, align 4
  %21 = icmp eq i32 %20, 0
  %22 = icmp eq i32 %15, 0
  %or.cond = select i1 %21, i1 %22, i1 false
  %23 = icmp eq i32 %20, 1
  %or.cond3 = or i1 %23, %or.cond
  br i1 %or.cond3, label %24, label %28

24:                                               ; preds = %9
  %25 = load ptr, ptr %6, align 8
  %26 = load ptr, ptr %10, align 8
  %27 = call i32 @dissect_nr_rrc_RRCReconfigurationComplete_PDU(ptr noundef %25, ptr noundef %26, ptr noundef %19, ptr noundef null)
  br label %35

28:                                               ; preds = %9
  %29 = icmp eq i32 %15, 1
  %or.cond5 = select i1 %21, i1 %29, i1 false
  %30 = icmp eq i32 %20, 2
  %or.cond7 = or i1 %30, %or.cond5
  br i1 %or.cond7, label %31, label %35

31:                                               ; preds = %28
  %32 = load ptr, ptr %6, align 8
  %33 = load ptr, ptr %10, align 8
  %34 = call i32 @dissect_lte_rrc_RRCConnectionReconfigurationComplete_PDU(ptr noundef %32, ptr noundef %33, ptr noundef %19, ptr noundef null)
  br label %35

35:                                               ; preds = %24, %28, %31, %5
  call void @llvm.lifetime.end.p0(i64 8, ptr nonnull %6) #9
  ret i32 %7
}